target datalayout = "e-m:e-p270:32:32-p271:32:32-p272:64:64-i64:64-i128:128-f80:128-n8:16:32:64-S128"
target triple = "x86_64-pc-linux-gnu"

%struct.UDataSwapper = type { i8, i8, i8, i8, ptr, ptr, ptr, ptr, ptr, ptr, ptr, ptr, ptr, ptr, ptr }

; Function Attrs: inlinehint mustprogress nounwind uwtable
define internal noundef signext i8 @_ZL9U_SUCCESS10UErrorCode(i32 noundef %0) #2 {
  %2 = alloca i32, align 4
  store i32 %0, ptr %2, align 4, !tbaa !16
  %3 = load i32, ptr %2, align 4, !tbaa !16
  %4 = icmp sle i32 %3, 0
  %5 = zext i1 %4 to i8
  ret i8 %5
}

; Function Attrs: inlinehint mustprogress nounwind uwtable
define internal noundef signext i8 @_ZL9U_FAILURE10UErrorCode(i32 noundef %0) #2 {
  %2 = alloca i32, align 4
  store i32 %0, ptr %2, align 4, !tbaa !16
  %3 = load i32, ptr %2, align 4, !tbaa !16
  %4 = icmp sgt i32 %3, 0
  %5 = zext i1 %4 to i8
  ret i8 %5
}

; Function Attrs: mustprogress uwtable
define i32 @udata_swapInvStringBlock_77(ptr noundef %0, ptr noundef %1, i32 noundef %2, ptr noundef %3, ptr noundef %4) #0 {
  %6 = alloca i32, align 4
  %7 = alloca ptr, align 8
  %8 = alloca ptr, align 8
  %9 = alloca i32, align 4
  %10 = alloca ptr, align 8
  %11 = alloca ptr, align 8
  %12 = alloca ptr, align 8
  %13 = alloca i32, align 4
  %14 = alloca i32, align 4
  store ptr %0, ptr %7, align 8, !tbaa !3
  store ptr %1, ptr %8, align 8, !tbaa !15
  store i32 %2, ptr %9, align 4, !tbaa !12
  store ptr %3, ptr %10, align 8, !tbaa !15
  store ptr %4, ptr %11, align 8, !tbaa !15
  call void @llvm.lifetime.start.p0(i64 8, ptr %12) #9
  call void @llvm.lifetime.start.p0(i64 4, ptr %13) #9
  %15 = load ptr, ptr %11, align 8, !tbaa !15
  %16 = icmp eq ptr %15, null
  br i1 %16, label %22, label %17

17:                                               ; preds = %5
  %18 = load ptr, ptr %11, align 8, !tbaa !15
  %19 = load i32, ptr %18, align 4, !tbaa !16
  %20 = call noundef signext i8 @_ZL9U_FAILURE10UErrorCode(i32 noundef %19)
  %21 = icmp ne i8 %20, 0
  br i1 %21, label %22, label %23

22:                                               ; preds = %17, %5
  store i32 0, ptr %6, align 4
  store i32 1, ptr %14, align 4
  br label %101

23:                                               ; preds = %17
  %24 = load ptr, ptr %7, align 8, !tbaa !3
  %25 = icmp eq ptr %24, null
  br i1 %25, label %38, label %26

26:                                               ; preds = %23
  %27 = load ptr, ptr %8, align 8, !tbaa !15
  %28 = icmp eq ptr %27, null
  br i1 %28, label %38, label %29

29:                                               ; preds = %26
  %30 = load i32, ptr %9, align 4, !tbaa !12
  %31 = icmp slt i32 %30, 0
  br i1 %31, label %38, label %32

32:                                               ; preds = %29
  %33 = load i32, ptr %9, align 4, !tbaa !12
  %34 = icmp sgt i32 %33, 0
  br i1 %34, label %35, label %40

35:                                               ; preds = %32
  %36 = load ptr, ptr %10, align 8, !tbaa !15
  %37 = icmp eq ptr %36, null
  br i1 %37, label %38, label %40

38:                                               ; preds = %35, %29, %26, %23
  %39 = load ptr, ptr %11, align 8, !tbaa !15
  store i32 1, ptr %39, align 4, !tbaa !16
  store i32 0, ptr %6, align 4
  store i32 1, ptr %14, align 4
  br label %101

40:                                               ; preds = %35, %32
  %41 = load ptr, ptr %8, align 8, !tbaa !15
  store ptr %41, ptr %12, align 8, !tbaa !18
  %42 = load i32, ptr %9, align 4, !tbaa !12
  store i32 %42, ptr %13, align 4, !tbaa !12
  br label %43

43:                                               ; preds = %57, %40
  %44 = load i32, ptr %13, align 4, !tbaa !12
  %45 = icmp sgt i32 %44, 0
  br i1 %45, label %46, label %55

46:                                               ; preds = %43
  %47 = load ptr, ptr %12, align 8, !tbaa !18
  %48 = load i32, ptr %13, align 4, !tbaa !12
  %49 = sub nsw i32 %48, 1
  %50 = sext i32 %49 to i64
  %51 = getelementptr inbounds i8, ptr %47, i64 %50
  %52 = load i8, ptr %51, align 1, !tbaa !20
  %53 = sext i8 %52 to i32
  %54 = icmp ne i32 %53, 0
  br label %55

55:                                               ; preds = %46, %43
  %56 = phi i1 [ false, %43 ], [ %54, %46 ]
  br i1 %56, label %57, label %60

57:                                               ; preds = %55
  %58 = load i32, ptr %13, align 4, !tbaa !12
  %59 = add nsw i32 %58, -1
  store i32 %59, ptr %13, align 4, !tbaa !12
  br label %43, !llvm.loop !21

60:                                               ; preds = %55
  %61 = load ptr, ptr %7, align 8, !tbaa !3
  %62 = getelementptr inbounds nuw %struct.UDataSwapper, ptr %61, i32 0, i32 12
  %63 = load ptr, ptr %62, align 8, !tbaa !23
  %64 = load ptr, ptr %7, align 8, !tbaa !3
  %65 = load ptr, ptr %8, align 8, !tbaa !15
  %66 = load i32, ptr %13, align 4, !tbaa !12
  %67 = load ptr, ptr %10, align 8, !tbaa !15
  %68 = load ptr, ptr %11, align 8, !tbaa !15
  %69 = call noundef i32 %63(ptr noundef %64, ptr noundef %65, i32 noundef %66, ptr noundef %67, ptr noundef %68)
  %70 = load ptr, ptr %8, align 8, !tbaa !15
  %71 = load ptr, ptr %10, align 8, !tbaa !15
  %72 = icmp ne ptr %70, %71
  br i1 %72, label %73, label %93

73:                                               ; preds = %60
  %74 = load i32, ptr %9, align 4, !tbaa !12
  %75 = load i32, ptr %13, align 4, !tbaa !12
  %76 = icmp sgt i32 %74, %75
  br i1 %76, label %77, label %93

77:                                               ; preds = %73
  br label %78

78:                                               ; preds = %77
  %79 = load ptr, ptr %10, align 8, !tbaa !15
  %80 = load i32, ptr %13, align 4, !tbaa !12
  %81 = sext i32 %80 to i64
  %82 = getelementptr inbounds i8, ptr %79, i64 %81
  %83 = load ptr, ptr %12, align 8, !tbaa !18
  %84 = load i32, ptr %13, align 4, !tbaa !12
  %85 = sext i32 %84 to i64
  %86 = getelementptr inbounds i8, ptr %83, i64 %85
  %87 = load i32, ptr %9, align 4, !tbaa !12
  %88 = load i32, ptr %13, align 4, !tbaa !12
  %89 = sub nsw i32 %87, %88
  %90 = sext i32 %89 to i64
  call void @llvm.memcpy.p0.p0.i64(ptr align 1 %82, ptr align 1 %86, i64 %90, i1 false)
  br label %91

91:                                               ; preds = %78
  br label %92

92:                                               ; preds = %91
  br label %93

93:                                               ; preds = %92, %73, %60
  %94 = load ptr, ptr %11, align 8, !tbaa !15
  %95 = load i32, ptr %94, align 4, !tbaa !16
  %96 = call noundef signext i8 @_ZL9U_SUCCESS10UErrorCode(i32 noundef %95)
  %97 = icmp ne i8 %96, 0
  br i1 %97, label %98, label %100

98:                                               ; preds = %93
  %99 = load i32, ptr %9, align 4, !tbaa !12
  store i32 %99, ptr %6, align 4
  store i32 1, ptr %14, align 4
  br label %101

100:                                              ; preds = %93
  store i32 0, ptr %6, align 4
  store i32 1, ptr %14, align 4
  br label %101

101:                                              ; preds = %100, %98, %38, %22
  call void @llvm.lifetime.end.p0(i64 4, ptr %13) #9
  call void @llvm.lifetime.end.p0(i64 8, ptr %12) #9
  %102 = load i32, ptr %6, align 4
  ret i32 %102
}